target datalayout = "e-m:e-p270:32:32-p271:32:32-p272:64:64-i64:64-i128:128-f80:128-n8:16:32:64-S128"
target triple = "x86_64-pc-linux-gnu"

%struct._packet_info = type { ptr, ptr, i32, i32, %struct.nstime_t, %struct.nstime_t, %struct.nstime_t, i8, ptr, ptr, ptr, ptr, %struct._address, %struct._address, %struct._address, %struct._address, %struct._address, %struct._address, i32, ptr, i8, [3 x i8], %struct.anon, i32, i32, i32, i32, ptr, i8, ptr, ptr, i16, i16, i32, i32, i16, i32, i32, ptr, ptr, ptr, i8, i8, i16, i16, i16, i32, i16, i16, ptr, ptr, ptr, ptr, ptr, i32, i32 }
%struct.nstime_t = type { i64, i32 }
%struct._address = type { i32, i32, ptr, ptr }
%struct.anon = type { i8, [3 x i8] }

@hf_docsis_cmstatus_e_t_mdd_t = internal global i32 0, align 4
@hf_docsis_cmstatus_e_t_qfl_f = internal global i32 0, align 4
@hf_docsis_cmstatus_e_t_s_o = internal global i32 0, align 4
@hf_docsis_cmstatus_e_t_mdd_r = internal global i32 0, align 4
@hf_docsis_cmstatus_e_t_qfl_r = internal global i32 0, align 4
@hf_docsis_cmstatus_e_t_t4_t = internal global i32 0, align 4
@hf_docsis_cmstatus_e_t_t3_e = internal global i32 0, align 4
@hf_docsis_cmstatus_e_t_rng_s = internal global i32 0, align 4
@hf_docsis_cmstatus_e_t_cm_b = internal global i32 0, align 4
@hf_docsis_cmstatus_e_t_cm_a = internal global i32 0, align 4
@hf_docsis_cmstatus_e_t_mac_removal = internal global i32 0, align 4
@hf_docsis_cmstatus_e_t_ds_ofdm_profile_failure = internal global i32 0, align 4
@hf_docsis_cmstatus_e_t_prim_ds_change = internal global i32 0, align 4
@hf_docsis_cmstatus_e_t_dpd_mismatch = internal global i32 0, align 4
@hf_docsis_cmstatus_e_t_ncp_profile_failure = internal global i32 0, align 4
@hf_docsis_cmstatus_e_t_plc_failure = internal global i32 0, align 4
@hf_docsis_cmstatus_e_t_ncp_profile_recovery = internal global i32 0, align 4
@hf_docsis_cmstatus_e_t_plc_recovery = internal global i32 0, align 4
@hf_docsis_cmstatus_e_t_ofdm_profile_recovery = internal global i32 0, align 4
@hf_docsis_cmstatus_e_t_ofdma_profile_failure = internal global i32 0, align 4
@hf_docsis_cmstatus_e_t_map_storage_overflow_indicator = internal global i32 0, align 4
@hf_docsis_cmstatus_e_t_map_storage_almost_full_indicator = internal global i32 0, align 4
@hf_docsis_cmstatus_e_t_unknown = internal global i32 0, align 4
@hf_docsis_mgt_tranid = internal global i32 0, align 4
@ett_docsis_cmstatusack = internal global i32 0, align 4
@proto_docsis_cmstatusack = internal global i32 0, align 4
@.str.2211 = private unnamed_addr constant [50 x i8] c"CM-STATUS Report Acknowledge: Transaction ID = %u\00", align 1

; Function Attrs: null_pointer_is_valid sspstrong uwtable
define internal void @dissect_cmstatus_common(ptr noundef %0, ptr noundef %1) #0 {
  %3 = alloca ptr, align 8
  %4 = alloca ptr, align 8
  %5 = alloca i8, align 1
  store ptr %0, ptr %3, align 8
  store ptr %1, ptr %4, align 8
  call void @llvm.lifetime.start.p0(i64 1, ptr %5) #6
  %6 = load ptr, ptr %3, align 8
  %7 = call zeroext i8 @tvb_get_uint8(ptr noundef %6, i32 noundef 2)
  store i8 %7, ptr %5, align 1
  %8 = load i8, ptr %5, align 1
  %9 = zext i8 %8 to i32
  switch i32 %9, label %120 [
    i32 1, label %10
    i32 2, label %15
    i32 3, label %20
    i32 4, label %25
    i32 5, label %30
    i32 6, label %35
    i32 7, label %40
    i32 8, label %45
    i32 9, label %50
    i32 10, label %55
    i32 11, label %60
    i32 16, label %65
    i32 17, label %70
    i32 18, label %75
    i32 20, label %80
    i32 21, label %85
    i32 22, label %90
    i32 23, label %95
    i32 24, label %100
    i32 25, label %105
    i32 26, label %110
    i32 27, label %115
  ]

10:                                               ; preds = %2
  %11 = load ptr, ptr %4, align 8
  %12 = load i32, ptr @hf_docsis_cmstatus_e_t_mdd_t, align 4
  %13 = load ptr, ptr %3, align 8
  %14 = call ptr @proto_tree_add_item(ptr noundef %11, i32 noundef %12, ptr noundef %13, i32 noundef 2, i32 noundef 1, i32 noundef 0)
  br label %125

15:                                               ; preds = %2
  %16 = load ptr, ptr %4, align 8
  %17 = load i32, ptr @hf_docsis_cmstatus_e_t_qfl_f, align 4
  %18 = load ptr, ptr %3, align 8
  %19 = call ptr @proto_tree_add_item(ptr noundef %16, i32 noundef %17, ptr noundef %18, i32 noundef 2, i32 noundef 1, i32 noundef 0)
  br label %125

20:                                               ; preds = %2
  %21 = load ptr, ptr %4, align 8
  %22 = load i32, ptr @hf_docsis_cmstatus_e_t_s_o, align 4
  %23 = load ptr, ptr %3, align 8
  %24 = call ptr @proto_tree_add_item(ptr noundef %21, i32 noundef %22, ptr noundef %23, i32 noundef 2, i32 noundef 1, i32 noundef 0)
  br label %125

25:                                               ; preds = %2
  %26 = load ptr, ptr %4, align 8
  %27 = load i32, ptr @hf_docsis_cmstatus_e_t_mdd_r, align 4
  %28 = load ptr, ptr %3, align 8
  %29 = call ptr @proto_tree_add_item(ptr noundef %26, i32 noundef %27, ptr noundef %28, i32 noundef 2, i32 noundef 1, i32 noundef 0)
  br label %125

30:                                               ; preds = %2
  %31 = load ptr, ptr %4, align 8
  %32 = load i32, ptr @hf_docsis_cmstatus_e_t_qfl_r, align 4
  %33 = load ptr, ptr %3, align 8
  %34 = call ptr @proto_tree_add_item(ptr noundef %31, i32 noundef %32, ptr noundef %33, i32 noundef 2, i32 noundef 1, i32 noundef 0)
  br label %125

35:                                               ; preds = %2
  %36 = load ptr, ptr %4, align 8
  %37 = load i32, ptr @hf_docsis_cmstatus_e_t_t4_t, align 4
  %38 = load ptr, ptr %3, align 8
  %39 = call ptr @proto_tree_add_item(ptr noundef %36, i32 noundef %37, ptr noundef %38, i32 noundef 2, i32 noundef 1, i32 noundef 0)
  br label %125

40:                                               ; preds = %2
  %41 = load ptr, ptr %4, align 8
  %42 = load i32, ptr @hf_docsis_cmstatus_e_t_t3_e, align 4
  %43 = load ptr, ptr %3, align 8
  %44 = call ptr @proto_tree_add_item(ptr noundef %41, i32 noundef %42, ptr noundef %43, i32 noundef 2, i32 noundef 1, i32 noundef 0)
  br label %125

45:                                               ; preds = %2
  %46 = load ptr, ptr %4, align 8
  %47 = load i32, ptr @hf_docsis_cmstatus_e_t_rng_s, align 4
  %48 = load ptr, ptr %3, align 8
  %49 = call ptr @proto_tree_add_item(ptr noundef %46, i32 noundef %47, ptr noundef %48, i32 noundef 2, i32 noundef 1, i32 noundef 0)
  br label %125

50:                                               ; preds = %2
  %51 = load ptr, ptr %4, align 8
  %52 = load i32, ptr @hf_docsis_cmstatus_e_t_cm_b, align 4
  %53 = load ptr, ptr %3, align 8
  %54 = call ptr @proto_tree_add_item(ptr noundef %51, i32 noundef %52, ptr noundef %53, i32 noundef 2, i32 noundef 1, i32 noundef 0)
  br label %125

55:                                               ; preds = %2
  %56 = load ptr, ptr %4, align 8
  %57 = load i32, ptr @hf_docsis_cmstatus_e_t_cm_a, align 4
  %58 = load ptr, ptr %3, align 8
  %59 = call ptr @proto_tree_add_item(ptr noundef %56, i32 noundef %57, ptr noundef %58, i32 noundef 2, i32 noundef 1, i32 noundef 0)
  br label %125

60:                                               ; preds = %2
  %61 = load ptr, ptr %4, align 8
  %62 = load i32, ptr @hf_docsis_cmstatus_e_t_mac_removal, align 4
  %63 = load ptr, ptr %3, align 8
  %64 = call ptr @proto_tree_add_item(ptr noundef %61, i32 noundef %62, ptr noundef %63, i32 noundef 2, i32 noundef 1, i32 noundef 0)
  br label %125

65:                                               ; preds = %2
  %66 = load ptr, ptr %4, align 8
  %67 = load i32, ptr @hf_docsis_cmstatus_e_t_ds_ofdm_profile_failure, align 4
  %68 = load ptr, ptr %3, align 8
  %69 = call ptr @proto_tree_add_item(ptr noundef %66, i32 noundef %67, ptr noundef %68, i32 noundef 2, i32 noundef 1, i32 noundef 0)
  br label %125

70:                                               ; preds = %2
  %71 = load ptr, ptr %4, align 8
  %72 = load i32, ptr @hf_docsis_cmstatus_e_t_prim_ds_change, align 4
  %73 = load ptr, ptr %3, align 8
  %74 = call ptr @proto_tree_add_item(ptr noundef %71, i32 noundef %72, ptr noundef %73, i32 noundef 2, i32 noundef 1, i32 noundef 0)
  br label %125

75:                                               ; preds = %2
  %76 = load ptr, ptr %4, align 8
  %77 = load i32, ptr @hf_docsis_cmstatus_e_t_dpd_mismatch, align 4
  %78 = load ptr, ptr %3, align 8
  %79 = call ptr @proto_tree_add_item(ptr noundef %76, i32 noundef %77, ptr noundef %78, i32 noundef 2, i32 noundef 1, i32 noundef 0)
  br label %125

80:                                               ; preds = %2
  %81 = load ptr, ptr %4, align 8
  %82 = load i32, ptr @hf_docsis_cmstatus_e_t_ncp_profile_failure, align 4
  %83 = load ptr, ptr %3, align 8
  %84 = call ptr @proto_tree_add_item(ptr noundef %81, i32 noundef %82, ptr noundef %83, i32 noundef 2, i32 noundef 1, i32 noundef 0)
  br label %125

85:                                               ; preds = %2
  %86 = load ptr, ptr %4, align 8
  %87 = load i32, ptr @hf_docsis_cmstatus_e_t_plc_failure, align 4
  %88 = load ptr, ptr %3, align 8
  %89 = call ptr @proto_tree_add_item(ptr noundef %86, i32 noundef %87, ptr noundef %88, i32 noundef 2, i32 noundef 1, i32 noundef 0)
  br label %125

90:                                               ; preds = %2
  %91 = load ptr, ptr %4, align 8
  %92 = load i32, ptr @hf_docsis_cmstatus_e_t_ncp_profile_recovery, align 4
  %93 = load ptr, ptr %3, align 8
  %94 = call ptr @proto_tree_add_item(ptr noundef %91, i32 noundef %92, ptr noundef %93, i32 noundef 2, i32 noundef 1, i32 noundef 0)
  br label %125

95:                                               ; preds = %2
  %96 = load ptr, ptr %4, align 8
  %97 = load i32, ptr @hf_docsis_cmstatus_e_t_plc_recovery, align 4
  %98 = load ptr, ptr %3, align 8
  %99 = call ptr @proto_tree_add_item(ptr noundef %96, i32 noundef %97, ptr noundef %98, i32 noundef 2, i32 noundef 1, i32 noundef 0)
  br label %125

100:                                              ; preds = %2
  %101 = load ptr, ptr %4, align 8
  %102 = load i32, ptr @hf_docsis_cmstatus_e_t_ofdm_profile_recovery, align 4
  %103 = load ptr, ptr %3, align 8
  %104 = call ptr @proto_tree_add_item(ptr noundef %101, i32 noundef %102, ptr noundef %103, i32 noundef 2, i32 noundef 1, i32 noundef 0)
  br label %125

105:                                              ; preds = %2
  %106 = load ptr, ptr %4, align 8
  %107 = load i32, ptr @hf_docsis_cmstatus_e_t_ofdma_profile_failure, align 4
  %108 = load ptr, ptr %3, align 8
  %109 = call ptr @proto_tree_add_item(ptr noundef %106, i32 noundef %107, ptr noundef %108, i32 noundef 2, i32 noundef 1, i32 noundef 0)
  br label %125

110:                                              ; preds = %2
  %111 = load ptr, ptr %4, align 8
  %112 = load i32, ptr @hf_docsis_cmstatus_e_t_map_storage_overflow_indicator, align 4
  %113 = load ptr, ptr %3, align 8
  %114 = call ptr @proto_tree_add_item(ptr noundef %111, i32 noundef %112, ptr noundef %113, i32 noundef 2, i32 noundef 1, i32 noundef 0)
  br label %125

115:                                              ; preds = %2
  %116 = load ptr, ptr %4, align 8
  %117 = load i32, ptr @hf_docsis_cmstatus_e_t_map_storage_almost_full_indicator, align 4
  %118 = load ptr, ptr %3, align 8
  %119 = call ptr @proto_tree_add_item(ptr noundef %116, i32 noundef %117, ptr noundef %118, i32 noundef 2, i32 noundef 1, i32 noundef 0)
  br label %125

120:                                              ; preds = %2
  %121 = load ptr, ptr %4, align 8
  %122 = load i32, ptr @hf_docsis_cmstatus_e_t_unknown, align 4
  %123 = load ptr, ptr %3, align 8
  %124 = call ptr @proto_tree_add_item(ptr noundef %121, i32 noundef %122, ptr noundef %123, i32 noundef 2, i32 noundef 1, i32 noundef 0)
  br label %125

125:                                              ; preds = %120, %115, %110, %105, %100, %95, %90, %85, %80, %75, %70, %65, %60, %55, %50, %45, %40, %35, %30, %25, %20, %15, %10
  call void @llvm.lifetime.end.p0(i64 1, ptr %5) #6
  ret void
}

; Function Attrs: null_pointer_is_valid sspstrong uwtable
define internal i32 @dissect_cmstatusack(ptr noundef %0, ptr noundef %1, ptr noundef %2, ptr noundef %3) #0 {
  %5 = alloca ptr, align 8
  %6 = alloca ptr, align 8
  %7 = alloca ptr, align 8
  %8 = alloca ptr, align 8
  %9 = alloca ptr, align 8
  %10 = alloca ptr, align 8
  %11 = alloca i32, align 4
  store ptr %0, ptr %5, align 8
  store ptr %1, ptr %6, align 8
  store ptr %2, ptr %7, align 8
  store ptr %3, ptr %8, align 8
  call void @llvm.lifetime.start.p0(i64 8, ptr %9) #6
  call void @llvm.lifetime.start.p0(i64 8, ptr %10) #6
  call void @llvm.lifetime.start.p0(i64 4, ptr %11) #6
  %12 = load ptr, ptr %7, align 8
  %13 = load i32, ptr @proto_docsis_cmstatusack, align 4
  %14 = load ptr, ptr %5, align 8
  %15 = call ptr @proto_tree_add_item(ptr noundef %12, i32 noundef %13, ptr noundef %14, i32 noundef 0, i32 noundef -1, i32 noundef 0)
  store ptr %15, ptr %9, align 8
  %16 = load ptr, ptr %9, align 8
  %17 = load i32, ptr @ett_docsis_cmstatusack, align 4
  %18 = call ptr @proto_item_add_subtree(ptr noundef %16, i32 noundef %17)
  store ptr %18, ptr %10, align 8
  %19 = load ptr, ptr %10, align 8
  %20 = load i32, ptr @hf_docsis_mgt_tranid, align 4
  %21 = load ptr, ptr %5, align 8
  %22 = call ptr @proto_tree_add_item_ret_uint(ptr noundef %19, i32 noundef %20, ptr noundef %21, i32 noundef 0, i32 noundef 2, i32 noundef 0, ptr noundef %11)
  %23 = load ptr, ptr %6, align 8
  %24 = getelementptr inbounds nuw %struct._packet_info, ptr %23, i32 0, i32 1
  %25 = load ptr, ptr %24, align 8
  %26 = load i32, ptr %11, align 4
  call void (ptr, i32, ptr, ...) @col_add_fstr(ptr noundef %25, i32 noundef 25, ptr noundef @.str.2211, i32 noundef %26)
  %27 = load ptr, ptr %5, align 8
  %28 = load ptr, ptr %10, align 8
  call void @dissect_cmstatus_common(ptr noundef %27, ptr noundef %28)
  %29 = load ptr, ptr %5, align 8
  %30 = call i32 @tvb_captured_length(ptr noundef %29)
  call void @llvm.lifetime.end.p0(i64 4, ptr %11) #6
  call void @llvm.lifetime.end.p0(i64 8, ptr %10) #6
  call void @llvm.lifetime.end.p0(i64 8, ptr %9) #6
  ret i32 %30
}