; Function Attrs: null_pointer_is_valid sspstrong uwtable
define internal i32 @dissect_cmstatusack(ptr noundef %0, ptr noundef readonly captures(none) %1, ptr noundef %2, ptr readnone captures(none) %3) #0 {
  %5 = alloca i32, align 4
  call void @llvm.lifetime.start.p0(i64 4, ptr nonnull %5) #6
  %6 = load i32, ptr @proto_docsis_cmstatusack, align 4
  %7 = tail call ptr @proto_tree_add_item(ptr noundef %2, i32 noundef %6, ptr noundef %0, i32 noundef 0, i32 noundef -1, i32 noundef 0)
  %8 = load i32, ptr @ett_docsis_cmstatusack, align 4
  %9 = tail call ptr @proto_item_add_subtree(ptr noundef %7, i32 noundef %8)
  %10 = load i32, ptr @hf_docsis_mgt_tranid, align 4
  %11 = call ptr @proto_tree_add_item_ret_uint(ptr noundef %9, i32 noundef %10, ptr noundef %0, i32 noundef 0, i32 noundef 2, i32 noundef 0, ptr noundef nonnull %5)
  %12 = getelementptr inbounds nuw i8, ptr %1, i64 8
  %13 = load ptr, ptr %12, align 8
  %14 = load i32, ptr %5, align 4
  call void (ptr, i32, ptr, ...) @col_add_fstr(ptr noundef %13, i32 noundef 25, ptr noundef nonnull @.str.2211, i32 noundef %14)
  %15 = call zeroext i8 @tvb_get_uint8(ptr noundef %0, i32 noundef 2)
  %switch.tableidx = add i8 %15, -1
  %16 = icmp ult i8 %switch.tableidx, 27
  br i1 %16, label %switch.lookup, label %dissect_cmstatus_common.exit

switch.lookup:                                    ; preds = %4
  %17 = zext nneg i8 %switch.tableidx to i64
  %switch.gep = getelementptr inbounds nuw [27 x ptr], ptr @switch.table.dissect_cmstatusack, i64 0, i64 %17
  %switch.load = load ptr, ptr %switch.gep, align 8
  br label %dissect_cmstatus_common.exit

dissect_cmstatus_common.exit:                     ; preds = %4, %switch.lookup
  %hf_docsis_cmstatus_e_t_unknown.sink.i = phi ptr [ %switch.load, %switch.lookup ], [ @hf_docsis_cmstatus_e_t_unknown, %4 ]
  %18 = load i32, ptr %hf_docsis_cmstatus_e_t_unknown.sink.i, align 4
  %19 = call ptr @proto_tree_add_item(ptr noundef %9, i32 noundef %18, ptr noundef %0, i32 noundef 2, i32 noundef 1, i32 noundef 0)
  %20 = call i32 @tvb_captured_length(ptr noundef %0)
  call void @llvm.lifetime.end.p0(i64 4, ptr nonnull %5) #6
  ret i32 %20
}